target datalayout = "e-m:e-p270:32:32-p271:32:32-p272:64:64-i64:64-i128:128-f80:128-n8:16:32:64-S128"
target triple = "x86_64-pc-linux-gnu"

%struct.multi_pack_index = type { ptr, ptr, i64, ptr, ptr, i64, i32, i8, i8, i8, i32, i32, i32, i32, i32, ptr, i64, ptr, i64, ptr, ptr, ptr, ptr, i64, ptr, i64, ptr, i32, i32, ptr, ptr, ptr, [0 x i8] }

@.str.49 = private unnamed_addr constant [49 x i8] c"multi-pack-index OID fanout is of the wrong size\00", align 1
@.str.50 = private unnamed_addr constant [59 x i8] c"oid fanout out of order: fanout[%d] = %x > %x = fanout[%d]\00", align 1
@.str.63 = private unnamed_addr constant [1 x i8] zeroinitializer, align 1
@git_gettext_enabled = external global i32, align 4

; Function Attrs: inlinehint nounwind uwtable
define internal i32 @default_swab32(i32 noundef %0) #2 {
  %2 = alloca i32, align 4
  store i32 %0, ptr %2, align 4, !tbaa !40
  %3 = load i32, ptr %2, align 4, !tbaa !40
  %4 = and i32 %3, -16777216
  %5 = lshr i32 %4, 24
  %6 = load i32, ptr %2, align 4, !tbaa !40
  %7 = and i32 %6, 16711680
  %8 = lshr i32 %7, 8
  %9 = or i32 %5, %8
  %10 = load i32, ptr %2, align 4, !tbaa !40
  %11 = and i32 %10, 65280
  %12 = shl i32 %11, 8
  %13 = or i32 %9, %12
  %14 = load i32, ptr %2, align 4, !tbaa !40
  %15 = and i32 %14, 255
  %16 = shl i32 %15, 24
  %17 = or i32 %13, %16
  ret i32 %17
}

; Function Attrs: inlinehint nounwind uwtable
define internal i32 @git_bswap32(i32 noundef %0) #2 {
  %2 = alloca i32, align 4
  %3 = alloca i32, align 4
  store i32 %0, ptr %2, align 4, !tbaa !40
  call void @llvm.lifetime.start.p0(i64 4, ptr %3) #13
  %4 = load i32, ptr %2, align 4, !tbaa !40
  %5 = call i1 @llvm.is.constant.i32(i32 %4)
  br i1 %5, label %6, label %9

6:                                                ; preds = %1
  %7 = load i32, ptr %2, align 4, !tbaa !40
  %8 = call i32 @default_swab32(i32 noundef %7)
  store i32 %8, ptr %3, align 4, !tbaa !40
  br label %12

9:                                                ; preds = %1
  %10 = load i32, ptr %2, align 4, !tbaa !40
  %11 = call i32 asm "bswap $0", "=r,0,~{dirflag},~{fpsr},~{flags}"(i32 %10) #15, !srcloc !140
  store i32 %11, ptr %3, align 4, !tbaa !40
  br label %12

12:                                               ; preds = %9, %6
  %13 = load i32, ptr %3, align 4, !tbaa !40
  call void @llvm.lifetime.end.p0(i64 4, ptr %3) #13
  ret i32 %13
}

; Function Attrs: inlinehint nounwind uwtable
define internal i32 @const_error() #2 {
  ret i32 -1
}

; Function Attrs: inlinehint nounwind uwtable
define internal ptr @_(ptr noundef %0) #2 {
  %2 = alloca ptr, align 8
  %3 = alloca ptr, align 8
  store ptr %0, ptr %3, align 8, !tbaa !9
  %4 = load ptr, ptr %3, align 8, !tbaa !9
  %5 = load i8, ptr %4, align 1, !tbaa !49
  %6 = icmp ne i8 %5, 0
  br i1 %6, label %8, label %7

7:                                                ; preds = %1
  store ptr @.str.63, ptr %2, align 8
  br label %16

8:                                                ; preds = %1
  %9 = load i32, ptr @git_gettext_enabled, align 4, !tbaa !40
  %10 = icmp ne i32 %9, 0
  br i1 %10, label %13, label %11

11:                                               ; preds = %8
  %12 = load ptr, ptr %3, align 8, !tbaa !9
  store ptr %12, ptr %2, align 8
  br label %16

13:                                               ; preds = %8
  %14 = load ptr, ptr %3, align 8, !tbaa !9
  %15 = call ptr @dcgettext(ptr noundef null, ptr noundef %14, i32 noundef 5) #13
  store ptr %15, ptr %2, align 8
  br label %16

16:                                               ; preds = %13, %11, %7
  %17 = load ptr, ptr %2, align 8
  ret ptr %17
}

; Function Attrs: nounwind uwtable
define internal i32 @midx_read_oid_fanout(ptr noundef %0, i64 noundef %1, ptr noundef %2) #0 {
  %4 = alloca i32, align 4
  %5 = alloca ptr, align 8
  %6 = alloca i64, align 8
  %7 = alloca ptr, align 8
  %8 = alloca i32, align 4
  %9 = alloca ptr, align 8
  %10 = alloca i32, align 4
  %11 = alloca i32, align 4
  %12 = alloca i32, align 4
  store ptr %0, ptr %5, align 8, !tbaa !9
  store i64 %1, ptr %6, align 8, !tbaa !11
  store ptr %2, ptr %7, align 8, !tbaa !43
  call void @llvm.lifetime.start.p0(i64 4, ptr %8) #13
  call void @llvm.lifetime.start.p0(i64 8, ptr %9) #13
  %13 = load ptr, ptr %7, align 8, !tbaa !43
  store ptr %13, ptr %9, align 8, !tbaa !4
  %14 = load ptr, ptr %5, align 8, !tbaa !9
  %15 = load ptr, ptr %9, align 8, !tbaa !4
  %16 = getelementptr inbounds nuw %struct.multi_pack_index, ptr %15, i32 0, i32 19
  store ptr %14, ptr %16, align 8, !tbaa !73
  %17 = load i64, ptr %6, align 8, !tbaa !11
  %18 = icmp ne i64 %17, 1024
  br i1 %18, label %19, label %23

19:                                               ; preds = %3
  %20 = call ptr @_(ptr noundef @.str.49)
  %21 = call i32 (ptr, ...) @error(ptr noundef %20)
  %22 = call i32 @const_error()
  store i32 1, ptr %4, align 4
  store i32 1, ptr %10, align 4
  br label %73

23:                                               ; preds = %3
  store i32 0, ptr %8, align 4, !tbaa !40
  br label %24

24:                                               ; preds = %61, %23
  %25 = load i32, ptr %8, align 4, !tbaa !40
  %26 = icmp slt i32 %25, 255
  br i1 %26, label %27, label %64

27:                                               ; preds = %24
  call void @llvm.lifetime.start.p0(i64 4, ptr %11) #13
  %28 = load ptr, ptr %9, align 8, !tbaa !4
  %29 = getelementptr inbounds nuw %struct.multi_pack_index, ptr %28, i32 0, i32 19
  %30 = load ptr, ptr %29, align 8, !tbaa !73
  %31 = load i32, ptr %8, align 4, !tbaa !40
  %32 = sext i32 %31 to i64
  %33 = getelementptr inbounds i32, ptr %30, i64 %32
  %34 = load i32, ptr %33, align 4, !tbaa !40
  %35 = call i32 @git_bswap32(i32 noundef %34)
  store i32 %35, ptr %11, align 4, !tbaa !40
  call void @llvm.lifetime.start.p0(i64 4, ptr %12) #13
  %36 = load ptr, ptr %9, align 8, !tbaa !4
  %37 = getelementptr inbounds nuw %struct.multi_pack_index, ptr %36, i32 0, i32 19
  %38 = load ptr, ptr %37, align 8, !tbaa !73
  %39 = load i32, ptr %8, align 4, !tbaa !40
  %40 = add nsw i32 %39, 1
  %41 = sext i32 %40 to i64
  %42 = getelementptr inbounds i32, ptr %38, i64 %41
  %43 = load i32, ptr %42, align 4, !tbaa !40
  %44 = call i32 @git_bswap32(i32 noundef %43)
  store i32 %44, ptr %12, align 4, !tbaa !40
  %45 = load i32, ptr %11, align 4, !tbaa !40
  %46 = load i32, ptr %12, align 4, !tbaa !40
  %47 = icmp ugt i32 %45, %46
  br i1 %47, label %48, label %57

48:                                               ; preds = %27
  %49 = call ptr @_(ptr noundef @.str.50)
  %50 = load i32, ptr %8, align 4, !tbaa !40
  %51 = load i32, ptr %11, align 4, !tbaa !40
  %52 = load i32, ptr %12, align 4, !tbaa !40
  %53 = load i32, ptr %8, align 4, !tbaa !40
  %54 = add nsw i32 %53, 1
  %55 = call i32 (ptr, ...) @error(ptr noundef %49, i32 noundef %50, i32 noundef %51, i32 noundef %52, i32 noundef %54)
  %56 = call i32 @const_error()
  store i32 1, ptr %4, align 4
  store i32 1, ptr %10, align 4
  br label %58

57:                                               ; preds = %27
  store i32 0, ptr %10, align 4
  br label %58

58:                                               ; preds = %57, %48
  call void @llvm.lifetime.end.p0(i64 4, ptr %12) #13
  call void @llvm.lifetime.end.p0(i64 4, ptr %11) #13
  %59 = load i32, ptr %10, align 4
  switch i32 %59, label %73 [
    i32 0, label %60
  ]

60:                                               ; preds = %58
  br label %61

61:                                               ; preds = %60
  %62 = load i32, ptr %8, align 4, !tbaa !40
  %63 = add nsw i32 %62, 1
  store i32 %63, ptr %8, align 4, !tbaa !40
  br label %24, !llvm.loop !139

64:                                               ; preds = %24
  %65 = load ptr, ptr %9, align 8, !tbaa !4
  %66 = getelementptr inbounds nuw %struct.multi_pack_index, ptr %65, i32 0, i32 19
  %67 = load ptr, ptr %66, align 8, !tbaa !73
  %68 = getelementptr inbounds i32, ptr %67, i64 255
  %69 = load i32, ptr %68, align 4, !tbaa !40
  %70 = call i32 @git_bswap32(i32 noundef %69)
  %71 = load ptr, ptr %9, align 8, !tbaa !4
  %72 = getelementptr inbounds nuw %struct.multi_pack_index, ptr %71, i32 0, i32 11
  store i32 %70, ptr %72, align 4, !tbaa !40
  store i32 0, ptr %4, align 4
  store i32 1, ptr %10, align 4
  br label %73

73:                                               ; preds = %64, %58, %19
  call void @llvm.lifetime.end.p0(i64 8, ptr %9) #13
  call void @llvm.lifetime.end.p0(i64 4, ptr %8) #13
  %74 = load i32, ptr %4, align 4
  ret i32 %74
}