; Function Attrs: nounwind uwtable
define internal range(i32 0, 2) i32 @midx_read_oid_fanout(ptr noundef %0, i64 noundef %1, ptr noundef writeonly captures(none) initializes((112, 120)) %2) #1 {
  %4 = getelementptr inbounds nuw i8, ptr %2, i64 112
  store ptr %0, ptr %4, align 8, !tbaa !67
  %.not = icmp eq i64 %1, 1024
  br i1 %.not, label %.critedge, label %5

5:                                                ; preds = %3
  %6 = load i32, ptr @git_gettext_enabled, align 4, !tbaa !41
  %.not4.i = icmp eq i32 %6, 0
  br i1 %.not4.i, label %_.exit, label %7

7:                                                ; preds = %5
  %8 = tail call ptr @dcgettext(ptr noundef null, ptr noundef nonnull @.str.49, i32 noundef 5) #22
  br label %_.exit

_.exit:                                           ; preds = %5, %7
  %.0.i = phi ptr [ %8, %7 ], [ @.str.49, %5 ]
  %9 = tail call i32 (ptr, ...) @error(ptr noundef %.0.i) #22
  br label %27

.critedge:                                        ; preds = %3, %git_bswap32.exit
  %indvars.iv = phi i64 [ %indvars.iv.next, %git_bswap32.exit ], [ 0, %3 ]
  %exitcond.not = icmp eq i64 %indvars.iv, 255
  br i1 %exitcond.not, label %git_bswap32.exit31, label %git_bswap32.exit

git_bswap32.exit:                                 ; preds = %.critedge
  %10 = getelementptr inbounds nuw i32, ptr %0, i64 %indvars.iv
  %11 = load i32, ptr %10, align 4, !tbaa !41
  %12 = tail call i32 asm "bswap $0", "=r,0,~{dirflag},~{fpsr},~{flags}"(i32 %11) #27, !srcloc !122
  %indvars.iv.next = add nuw nsw i64 %indvars.iv, 1
  %13 = getelementptr inbounds nuw i32, ptr %0, i64 %indvars.iv.next
  %14 = load i32, ptr %13, align 4, !tbaa !41
  %15 = tail call i32 asm "bswap $0", "=r,0,~{dirflag},~{fpsr},~{flags}"(i32 %14) #27, !srcloc !122
  %.not23 = icmp ugt i32 %12, %15
  br i1 %.not23, label %16, label %.critedge, !llvm.loop !123

16:                                               ; preds = %git_bswap32.exit
  %17 = trunc nuw nsw i64 %indvars.iv to i32
  %18 = trunc nuw nsw i64 %indvars.iv.next to i32
  %19 = load i32, ptr @git_gettext_enabled, align 4, !tbaa !41
  %.not4.i27 = icmp eq i32 %19, 0
  br i1 %.not4.i27, label %_.exit29, label %20

20:                                               ; preds = %16
  %21 = tail call ptr @dcgettext(ptr noundef null, ptr noundef nonnull @.str.50, i32 noundef 5) #22
  br label %_.exit29

_.exit29:                                         ; preds = %16, %20
  %.0.i28 = phi ptr [ %21, %20 ], [ @.str.50, %16 ]
  %22 = tail call i32 (ptr, ...) @error(ptr noundef %.0.i28, i32 noundef %17, i32 noundef %12, i32 noundef %15, i32 noundef %18) #22
  br label %27

git_bswap32.exit31:                               ; preds = %.critedge
  %23 = getelementptr inbounds nuw i8, ptr %0, i64 1020
  %24 = load i32, ptr %23, align 4, !tbaa !41
  %25 = tail call i32 asm "bswap $0", "=r,0,~{dirflag},~{fpsr},~{flags}"(i32 %24) #27, !srcloc !122
  %26 = getelementptr inbounds nuw i8, ptr %2, i64 60
  store i32 %25, ptr %26, align 4, !tbaa !41
  br label %27

27:                                               ; preds = %_.exit29, %git_bswap32.exit31, %_.exit
  %.0 = phi i32 [ 1, %_.exit ], [ 1, %_.exit29 ], [ 0, %git_bswap32.exit31 ]
  ret i32 %.0
}